#include <math.h>
#include <stdio.h>
#include <stdlib.h>
#include <string.h>

int main()
{
    int i,j,row,col,m,n;
	int a[100][100];
	scanf("%d %d",&row,&col);
	for(i=0;i<row;i++)
		for(j=0;j<col;j++)
			scanf("%d",&a[i][j]);
		if(row<=col){
	for(m=0;m<row;m++)
		for(n=0;n<=m;n++)
			printf("%d\n",a[n][m-n]);
	for(m=row;m<col;m++)
		for(n=0;n<row;n++)
			printf("%d\n",a[n][m-n]);
	for(m=col;m<(col+row);m++)
		for(n=(m-col+1);n<row;n++)
			printf("%d\n",a[n][m-n]);
		}
		else{
	for(m=0;m<col;m++)
		for(n=0;n<=m;n++)
			printf("%d\n",a[n][m-n]);
	for(m=col;m<row;m++)
		for(n=col-1;n>=0;n--)
			printf("%d\n",a[m-n][n]);
	for(m=row;m<(col+row);m++)
		for(n=col-1;n>=(m-row+1);n--)
			printf("%d\n",a[m-n][n]);
		}
		return 0;
}

