target datalayout = "e-m:e-p270:32:32-p271:32:32-p272:64:64-i64:64-f80:128-n8:16:32:64-S128"
target triple = "x86_64-pc-linux-gnu"

@.str = private unnamed_addr constant [6 x i8] c"%d %d\00", align 1
@.str.1 = private unnamed_addr constant [3 x i8] c"%d\00", align 1
@.str.2 = private unnamed_addr constant [4 x i8] c"%d\0A\00", align 1

; Function Attrs: noinline nounwind uwtable
define dso_local i32 @main() #0 {
  %1 = alloca i32, align 4
  %2 = alloca i32, align 4
  %3 = alloca i32, align 4
  %4 = alloca i32, align 4
  %5 = alloca i32, align 4
  %6 = alloca i32, align 4
  %7 = alloca i32, align 4
  %8 = alloca [100 x [100 x i32]], align 16
  store i32 0, i32* %1, align 4
  %9 = call i32 (i8*, ...) @__isoc99_scanf(i8* getelementptr inbounds ([6 x i8], [6 x i8]* @.str, i64 0, i64 0), i32* %4, i32* %5)
  store i32 0, i32* %2, align 4
  br label %10

10:                                               ; preds = %31, %0
  %11 = load i32, i32* %2, align 4
  %12 = load i32, i32* %4, align 4
  %13 = icmp slt i32 %11, %12
  br i1 %13, label %14, label %34

14:                                               ; preds = %10
  store i32 0, i32* %3, align 4
  br label %15

15:                                               ; preds = %27, %14
  %16 = load i32, i32* %3, align 4
  %17 = load i32, i32* %5, align 4
  %18 = icmp slt i32 %16, %17
  br i1 %18, label %19, label %30

19:                                               ; preds = %15
  %20 = load i32, i32* %2, align 4
  %21 = sext i32 %20 to i64
  %22 = getelementptr inbounds [100 x [100 x i32]], [100 x [100 x i32]]* %8, i64 0, i64 %21
  %23 = load i32, i32* %3, align 4
  %24 = sext i32 %23 to i64
  %25 = getelementptr inbounds [100 x i32], [100 x i32]* %22, i64 0, i64 %24
  %26 = call i32 (i8*, ...) @__isoc99_scanf(i8* getelementptr inbounds ([3 x i8], [3 x i8]* @.str.1, i64 0, i64 0), i32* %25)
  br label %27

27:                                               ; preds = %19
  %28 = load i32, i32* %3, align 4
  %29 = add nsw i32 %28, 1
  store i32 %29, i32* %3, align 4
  br label %15

30:                                               ; preds = %15
  br label %31

31:                                               ; preds = %30
  %32 = load i32, i32* %2, align 4
  %33 = add nsw i32 %32, 1
  store i32 %33, i32* %2, align 4
  br label %10

34:                                               ; preds = %10
  %35 = load i32, i32* %4, align 4
  %36 = load i32, i32* %5, align 4
  %37 = icmp sle i32 %35, %36
  br i1 %37, label %38, label %131

38:                                               ; preds = %34
  store i32 0, i32* %6, align 4
  br label %39

39:                                               ; preds = %63, %38
  %40 = load i32, i32* %6, align 4
  %41 = load i32, i32* %4, align 4
  %42 = icmp slt i32 %40, %41
  br i1 %42, label %43, label %66

43:                                               ; preds = %39
  store i32 0, i32* %7, align 4
  br label %44

44:                                               ; preds = %59, %43
  %45 = load i32, i32* %7, align 4
  %46 = load i32, i32* %6, align 4
  %47 = icmp sle i32 %45, %46
  br i1 %47, label %48, label %62

48:                                               ; preds = %44
  %49 = load i32, i32* %7, align 4
  %50 = sext i32 %49 to i64
  %51 = getelementptr inbounds [100 x [100 x i32]], [100 x [100 x i32]]* %8, i64 0, i64 %50
  %52 = load i32, i32* %6, align 4
  %53 = load i32, i32* %7, align 4
  %54 = sub nsw i32 %52, %53
  %55 = sext i32 %54 to i64
  %56 = getelementptr inbounds [100 x i32], [100 x i32]* %51, i64 0, i64 %55
  %57 = load i32, i32* %56, align 4
  %58 = call i32 (i8*, ...) @printf(i8* getelementptr inbounds ([4 x i8], [4 x i8]* @.str.2, i64 0, i64 0), i32 %57)
  br label %59

59:                                               ; preds = %48
  %60 = load i32, i32* %7, align 4
  %61 = add nsw i32 %60, 1
  store i32 %61, i32* %7, align 4
  br label %44

62:                                               ; preds = %44
  br label %63

63:                                               ; preds = %62
  %64 = load i32, i32* %6, align 4
  %65 = add nsw i32 %64, 1
  store i32 %65, i32* %6, align 4
  br label %39

66:                                               ; preds = %39
  %67 = load i32, i32* %4, align 4
  store i32 %67, i32* %6, align 4
  br label %68

68:                                               ; preds = %92, %66
  %69 = load i32, i32* %6, align 4
  %70 = load i32, i32* %5, align 4
  %71 = icmp slt i32 %69, %70
  br i1 %71, label %72, label %95

72:                                               ; preds = %68
  store i32 0, i32* %7, align 4
  br label %73

73:                                               ; preds = %88, %72
  %74 = load i32, i32* %7, align 4
  %75 = load i32, i32* %4, align 4
  %76 = icmp slt i32 %74, %75
  br i1 %76, label %77, label %91

77:                                               ; preds = %73
  %78 = load i32, i32* %7, align 4
  %79 = sext i32 %78 to i64
  %80 = getelementptr inbounds [100 x [100 x i32]], [100 x [100 x i32]]* %8, i64 0, i64 %79
  %81 = load i32, i32* %6, align 4
  %82 = load i32, i32* %7, align 4
  %83 = sub nsw i32 %81, %82
  %84 = sext i32 %83 to i64
  %85 = getelementptr inbounds [100 x i32], [100 x i32]* %80, i64 0, i64 %84
  %86 = load i32, i32* %85, align 4
  %87 = call i32 (i8*, ...) @printf(i8* getelementptr inbounds ([4 x i8], [4 x i8]* @.str.2, i64 0, i64 0), i32 %86)
  br label %88

88:                                               ; preds = %77
  %89 = load i32, i32* %7, align 4
  %90 = add nsw i32 %89, 1
  store i32 %90, i32* %7, align 4
  br label %73

91:                                               ; preds = %73
  br label %92

92:                                               ; preds = %91
  %93 = load i32, i32* %6, align 4
  %94 = add nsw i32 %93, 1
  store i32 %94, i32* %6, align 4
  br label %68

95:                                               ; preds = %68
  %96 = load i32, i32* %5, align 4
  store i32 %96, i32* %6, align 4
  br label %97

97:                                               ; preds = %127, %95
  %98 = load i32, i32* %6, align 4
  %99 = load i32, i32* %5, align 4
  %100 = load i32, i32* %4, align 4
  %101 = add nsw i32 %99, %100
  %102 = icmp slt i32 %98, %101
  br i1 %102, label %103, label %130

103:                                              ; preds = %97
  %104 = load i32, i32* %6, align 4
  %105 = load i32, i32* %5, align 4
  %106 = sub nsw i32 %104, %105
  %107 = add nsw i32 %106, 1
  store i32 %107, i32* %7, align 4
  br label %108

108:                                              ; preds = %123, %103
  %109 = load i32, i32* %7, align 4
  %110 = load i32, i32* %4, align 4
  %111 = icmp slt i32 %109, %110
  br i1 %111, label %112, label %126

112:                                              ; preds = %108
  %113 = load i32, i32* %7, align 4
  %114 = sext i32 %113 to i64
  %115 = getelementptr inbounds [100 x [100 x i32]], [100 x [100 x i32]]* %8, i64 0, i64 %114
  %116 = load i32, i32* %6, align 4
  %117 = load i32, i32* %7, align 4
  %118 = sub nsw i32 %116, %117
  %119 = sext i32 %118 to i64
  %120 = getelementptr inbounds [100 x i32], [100 x i32]* %115, i64 0, i64 %119
  %121 = load i32, i32* %120, align 4
  %122 = call i32 (i8*, ...) @printf(i8* getelementptr inbounds ([4 x i8], [4 x i8]* @.str.2, i64 0, i64 0), i32 %121)
  br label %123

123:                                              ; preds = %112
  %124 = load i32, i32* %7, align 4
  %125 = add nsw i32 %124, 1
  store i32 %125, i32* %7, align 4
  br label %108

126:                                              ; preds = %108
  br label %127

127:                                              ; preds = %126
  %128 = load i32, i32* %6, align 4
  %129 = add nsw i32 %128, 1
  store i32 %129, i32* %6, align 4
  br label %97

130:                                              ; preds = %97
  br label %226

131:                                              ; preds = %34
  store i32 0, i32* %6, align 4
  br label %132

132:                                              ; preds = %156, %131
  %133 = load i32, i32* %6, align 4
  %134 = load i32, i32* %5, align 4
  %135 = icmp slt i32 %133, %134
  br i1 %135, label %136, label %159

136:                                              ; preds = %132
  store i32 0, i32* %7, align 4
  br label %137

137:                                              ; preds = %152, %136
  %138 = load i32, i32* %7, align 4
  %139 = load i32, i32* %6, align 4
  %140 = icmp sle i32 %138, %139
  br i1 %140, label %141, label %155

141:                                              ; preds = %137
  %142 = load i32, i32* %7, align 4
  %143 = sext i32 %142 to i64
  %144 = getelementptr inbounds [100 x [100 x i32]], [100 x [100 x i32]]* %8, i64 0, i64 %143
  %145 = load i32, i32* %6, align 4
  %146 = load i32, i32* %7, align 4
  %147 = sub nsw i32 %145, %146
  %148 = sext i32 %147 to i64
  %149 = getelementptr inbounds [100 x i32], [100 x i32]* %144, i64 0, i64 %148
  %150 = load i32, i32* %149, align 4
  %151 = call i32 (i8*, ...) @printf(i8* getelementptr inbounds ([4 x i8], [4 x i8]* @.str.2, i64 0, i64 0), i32 %150)
  br label %152

152:                                              ; preds = %141
  %153 = load i32, i32* %7, align 4
  %154 = add nsw i32 %153, 1
  store i32 %154, i32* %7, align 4
  br label %137

155:                                              ; preds = %137
  br label %156

156:                                              ; preds = %155
  %157 = load i32, i32* %6, align 4
  %158 = add nsw i32 %157, 1
  store i32 %158, i32* %6, align 4
  br label %132

159:                                              ; preds = %132
  %160 = load i32, i32* %5, align 4
  store i32 %160, i32* %6, align 4
  br label %161

161:                                              ; preds = %186, %159
  %162 = load i32, i32* %6, align 4
  %163 = load i32, i32* %4, align 4
  %164 = icmp slt i32 %162, %163
  br i1 %164, label %165, label %189

165:                                              ; preds = %161
  %166 = load i32, i32* %5, align 4
  %167 = sub nsw i32 %166, 1
  store i32 %167, i32* %7, align 4
  br label %168

168:                                              ; preds = %182, %165
  %169 = load i32, i32* %7, align 4
  %170 = icmp sge i32 %169, 0
  br i1 %170, label %171, label %185

171:                                              ; preds = %168
  %172 = load i32, i32* %6, align 4
  %173 = load i32, i32* %7, align 4
  %174 = sub nsw i32 %172, %173
  %175 = sext i32 %174 to i64
  %176 = getelementptr inbounds [100 x [100 x i32]], [100 x [100 x i32]]* %8, i64 0, i64 %175
  %177 = load i32, i32* %7, align 4
  %178 = sext i32 %177 to i64
  %179 = getelementptr inbounds [100 x i32], [100 x i32]* %176, i64 0, i64 %178
  %180 = load i32, i32* %179, align 4
  %181 = call i32 (i8*, ...) @printf(i8* getelementptr inbounds ([4 x i8], [4 x i8]* @.str.2, i64 0, i64 0), i32 %180)
  br label %182

182:                                              ; preds = %171
  %183 = load i32, i32* %7, align 4
  %184 = add nsw i32 %183, -1
  store i32 %184, i32* %7, align 4
  br label %168

185:                                              ; preds = %168
  br label %186

186:                                              ; preds = %185
  %187 = load i32, i32* %6, align 4
  %188 = add nsw i32 %187, 1
  store i32 %188, i32* %6, align 4
  br label %161

189:                                              ; preds = %161
  %190 = load i32, i32* %4, align 4
  store i32 %190, i32* %6, align 4
  br label %191

191:                                              ; preds = %222, %189
  %192 = load i32, i32* %6, align 4
  %193 = load i32, i32* %5, align 4
  %194 = load i32, i32* %4, align 4
  %195 = add nsw i32 %193, %194
  %196 = icmp slt i32 %192, %195
  br i1 %196, label %197, label %225

197:                                              ; preds = %191
  %198 = load i32, i32* %5, align 4
  %199 = sub nsw i32 %198, 1
  store i32 %199, i32* %7, align 4
  br label %200

200:                                              ; preds = %218, %197
  %201 = load i32, i32* %7, align 4
  %202 = load i32, i32* %6, align 4
  %203 = load i32, i32* %4, align 4
  %204 = sub nsw i32 %202, %203
  %205 = add nsw i32 %204, 1
  %206 = icmp sge i32 %201, %205
  br i1 %206, label %207, label %221

207:                                              ; preds = %200
  %208 = load i32, i32* %6, align 4
  %209 = load i32, i32* %7, align 4
  %210 = sub nsw i32 %208, %209
  %211 = sext i32 %210 to i64
  %212 = getelementptr inbounds [100 x [100 x i32]], [100 x [100 x i32]]* %8, i64 0, i64 %211
  %213 = load i32, i32* %7, align 4
  %214 = sext i32 %213 to i64
  %215 = getelementptr inbounds [100 x i32], [100 x i32]* %212, i64 0, i64 %214
  %216 = load i32, i32* %215, align 4
  %217 = call i32 (i8*, ...) @printf(i8* getelementptr inbounds ([4 x i8], [4 x i8]* @.str.2, i64 0, i64 0), i32 %216)
  br label %218

218:                                              ; preds = %207
  %219 = load i32, i32* %7, align 4
  %220 = add nsw i32 %219, -1
  store i32 %220, i32* %7, align 4
  br label %200

221:                                              ; preds = %200
  br label %222

222:                                              ; preds = %221
  %223 = load i32, i32* %6, align 4
  %224 = add nsw i32 %223, 1
  store i32 %224, i32* %6, align 4
  br label %191

225:                                              ; preds = %191
  br label %226

226:                                              ; preds = %225, %130
  ret i32 0
}